   1               		.file	"canix.c"
   2               	__SREG__ = 0x3f
   3               	__SP_H__ = 0x3e
   4               	__SP_L__ = 0x3d
   5               	__CCP__ = 0x34
   6               	__tmp_reg__ = 0
   7               	__zero_reg__ = 1
   8               		.text
   9               	.global	canix_rxq_size
  11               	canix_rxq_size:
  12               	/* prologue: function */
  13               	/* frame size = 0 */
  14               	/* stack size = 0 */
  15               	.L__stack_usage = 0
  16 0000 20E0      		ldi r18,lo8(0)
  17 0002 30E0      		ldi r19,hi8(0)
  18 0004 80E0      		ldi r24,lo8(0)
  19               	.L3:
  20 0006 A901      		movw r20,r18
  21 0008 440F      		lsl r20
  22 000a 551F      		rol r21
  23 000c FA01      		movw r30,r20
  24 000e 93E0      		ldi r25,3
  25 0010 EE0F      	1:	lsl r30
  26 0012 FF1F      		rol r31
  27 0014 9A95      		dec r25
  28 0016 01F4      		brne 1b
  29 0018 E41B      		sub r30,r20
  30 001a F50B      		sbc r31,r21
  31 001c E050      		subi r30,lo8(-(canix_rx_queue))
  32 001e F040      		sbci r31,hi8(-(canix_rx_queue))
  33 0020 9081      		ld r25,Z
  34 0022 9111      		cpse r25,__zero_reg__
  35 0024 8F5F      		subi r24,lo8(-(1))
  36               	.L2:
  37 0026 2F5F      		subi r18,lo8(-(1))
  38 0028 3F4F      		sbci r19,hi8(-(1))
  39 002a 2C30      		cpi r18,12
  40 002c 3105      		cpc r19,__zero_reg__
  41 002e 01F4      		brne .L3
  42               	/* epilogue start */
  43 0030 0895      		ret
  45               	.global	canix_rxq_fetch_one
  47               	canix_rxq_fetch_one:
  48               	/* prologue: function */
  49               	/* frame size = 0 */
  50               	/* stack size = 0 */
  51               	.L__stack_usage = 0
  52 0032 20E0      		ldi r18,lo8(0)
  53 0034 30E0      		ldi r19,hi8(0)
  54               	.L7:
  55 0036 822F      		mov r24,r18
  56 0038 A901      		movw r20,r18
  57 003a 440F      		lsl r20
  58 003c 551F      		rol r21
  59 003e FA01      		movw r30,r20
  60 0040 73E0      		ldi r23,3
  61 0042 EE0F      	1:	lsl r30
  62 0044 FF1F      		rol r31
  63 0046 7A95      		dec r23
  64 0048 01F4      		brne 1b
  65 004a E41B      		sub r30,r20
  66 004c F50B      		sbc r31,r21
  67 004e E050      		subi r30,lo8(-(canix_rx_queue))
  68 0050 F040      		sbci r31,hi8(-(canix_rx_queue))
  69 0052 9081      		ld r25,Z
  70 0054 9923      		tst r25
  71 0056 01F4      		brne .L6
  72 0058 2F5F      		subi r18,lo8(-(1))
  73 005a 3F4F      		sbci r19,hi8(-(1))
  74 005c 2C30      		cpi r18,12
  75 005e 3105      		cpc r19,__zero_reg__
  76 0060 01F4      		brne .L7
  77 0062 80E0      		ldi r24,lo8(0)
  78               	.L6:
  79 0064 0895      		ret
  81               	.global	canix_rxq_put_one
  83               	canix_rxq_put_one:
  84               	/* prologue: function */
  85               	/* frame size = 0 */
  86               	/* stack size = 0 */
  87               	.L__stack_usage = 0
  88 0066 20E0      		ldi r18,lo8(0)
  89 0068 30E0      		ldi r19,hi8(0)
  90               	.L11:
  91 006a 822F      		mov r24,r18
  92 006c A901      		movw r20,r18
  93 006e 440F      		lsl r20
  94 0070 551F      		rol r21
  95 0072 FA01      		movw r30,r20
  96 0074 A3E0      		ldi r26,3
  97 0076 EE0F      	1:	lsl r30
  98 0078 FF1F      		rol r31
  99 007a AA95      		dec r26
 100 007c 01F4      		brne 1b
 101 007e E41B      		sub r30,r20
 102 0080 F50B      		sbc r31,r21
 103 0082 E050      		subi r30,lo8(-(canix_rx_queue))
 104 0084 F040      		sbci r31,hi8(-(canix_rx_queue))
 105 0086 9081      		ld r25,Z
 106 0088 9923      		tst r25
 107 008a 01F0      		breq .L10
 108 008c 2F5F      		subi r18,lo8(-(1))
 109 008e 3F4F      		sbci r19,hi8(-(1))
 110 0090 2C30      		cpi r18,12
 111 0092 3105      		cpc r19,__zero_reg__
 112 0094 01F4      		brne .L11
 113 0096 80E0      		ldi r24,lo8(0)
 114               	.L10:
 115 0098 0895      		ret
 117               	.global	canix_rtc_init
 119               	canix_rtc_init:
 120               	/* prologue: function */
 121               	/* frame size = 0 */
 122               	/* stack size = 0 */
 123               	.L__stack_usage = 0
 124 009a 1092 0000 		sts canix_rtc_clock+4,__zero_reg__
 125 009e E0E0      		ldi r30,lo8(canix_rtc_clock+4)
 126 00a0 F0E0      		ldi r31,hi8(canix_rtc_clock+4)
 127 00a2 1292      		st -Z,__zero_reg__
 128 00a4 1292      		st -Z,__zero_reg__
 129 00a6 1292      		st -Z,__zero_reg__
 130 00a8 1292      		st -Z,__zero_reg__
 131 00aa 1582      		std Z+5,__zero_reg__
 132 00ac 1682      		std Z+6,__zero_reg__
 133 00ae 1782      		std Z+7,__zero_reg__
 134 00b0 1086      		std Z+8,__zero_reg__
 135 00b2 8FEF      		ldi r24,lo8(-1)
 136 00b4 8187      		std Z+9,r24
 137 00b6 1286      		std Z+10,__zero_reg__
 138 00b8 1386      		std Z+11,__zero_reg__
 139 00ba 1486      		std Z+12,__zero_reg__
 140 00bc 95E0      		ldi r25,lo8(5)
 141 00be 95BD      		out 69-32,r25
 142 00c0 91E0      		ldi r25,lo8(1)
 143 00c2 9093 6E00 		sts 110,r25
 144 00c6 86BD      		out 70-32,r24
 145               	/* epilogue start */
 146 00c8 0895      		ret
 148               	.global	canix_update_datetime
 150               	canix_update_datetime:
 151               	/* prologue: function */
 152               	/* frame size = 0 */
 153               	/* stack size = 0 */
 154               	.L__stack_usage = 0
 155 00ca 8091 0000 		lds r24,canix_rtc_clock+8
 156 00ce 8F5F      		subi r24,lo8(-(1))
 157 00d0 8093 0000 		sts canix_rtc_clock+8,r24
 158 00d4 8091 0000 		lds r24,canix_rtc_clock+8
 159 00d8 8C33      		cpi r24,lo8(60)
 160 00da 01F0      		breq .+2
 161 00dc 00C0      		rjmp .L14
 162 00de 1092 0000 		sts canix_rtc_clock+8,__zero_reg__
 163 00e2 8091 0000 		lds r24,canix_rtc_clock+7
 164 00e6 8F5F      		subi r24,lo8(-(1))
 165 00e8 8093 0000 		sts canix_rtc_clock+7,r24
 166 00ec 8091 0000 		lds r24,canix_rtc_clock+7
 167 00f0 8C33      		cpi r24,lo8(60)
 168 00f2 01F0      		breq .+2
 169 00f4 00C0      		rjmp .L14
 170 00f6 1092 0000 		sts canix_rtc_clock+7,__zero_reg__
 171 00fa 8091 0000 		lds r24,canix_rtc_clock+9
 172 00fe 8F3F      		cpi r24,lo8(-1)
 173 0100 01F0      		breq .L16
 174 0102 8091 0000 		lds r24,canix_rtc_clock+9
 175 0106 8F5F      		subi r24,lo8(-(1))
 176 0108 8093 0000 		sts canix_rtc_clock+9,r24
 177               	.L16:
 178 010c 8091 0000 		lds r24,canix_rtc_clock+6
 179 0110 8F5F      		subi r24,lo8(-(1))
 180 0112 8093 0000 		sts canix_rtc_clock+6,r24
 181 0116 8091 0000 		lds r24,canix_rtc_clock+6
 182 011a 8831      		cpi r24,lo8(24)
 183 011c 01F4      		brne .L14
 184 011e 1092 0000 		sts canix_rtc_clock+6,__zero_reg__
 185 0122 8091 0000 		lds r24,canix_rtc_clock+5
 186 0126 8F5F      		subi r24,lo8(-(1))
 187 0128 8093 0000 		sts canix_rtc_clock+5,r24
 188 012c 8091 0000 		lds r24,canix_rtc_clock+5
 189 0130 8830      		cpi r24,lo8(8)
 190 0132 01F4      		brne .L17
 191 0134 81E0      		ldi r24,lo8(1)
 192 0136 8093 0000 		sts canix_rtc_clock+5,r24
 193               	.L17:
 194 013a 8091 0000 		lds r24,canix_rtc_clock+10
 195 013e 8F5F      		subi r24,lo8(-(1))
 196 0140 8093 0000 		sts canix_rtc_clock+10,r24
 197 0144 E091 0000 		lds r30,canix_rtc_clock+11
 198 0148 E150      		subi r30,lo8(-(-1))
 199 014a EC30      		cpi r30,lo8(12)
 200 014c 00F4      		brsh .L19
 201 014e F0E0      		ldi r31,lo8(0)
 202 0150 E050      		subi r30,lo8(-(CSWTCH.20))
 203 0152 F040      		sbci r31,hi8(-(CSWTCH.20))
 204 0154 8081      		ld r24,Z
 205 0156 00C0      		rjmp .L18
 206               	.L19:
 207 0158 80E0      		ldi r24,lo8(0)
 208               	.L18:
 209 015a 9091 0000 		lds r25,canix_rtc_clock+10
 210 015e 8917      		cp r24,r25
 211 0160 00F4      		brsh .L14
 212 0162 91E0      		ldi r25,lo8(1)
 213 0164 9093 0000 		sts canix_rtc_clock+10,r25
 214 0168 8091 0000 		lds r24,canix_rtc_clock+11
 215 016c 8F5F      		subi r24,lo8(-(1))
 216 016e 8093 0000 		sts canix_rtc_clock+11,r24
 217 0172 8091 0000 		lds r24,canix_rtc_clock+11
 218 0176 8D30      		cpi r24,lo8(13)
 219 0178 00F0      		brlo .L14
 220 017a 9093 0000 		sts canix_rtc_clock+11,r25
 221 017e 8091 0000 		lds r24,canix_rtc_clock+12
 222 0182 8F5F      		subi r24,lo8(-(1))
 223 0184 8093 0000 		sts canix_rtc_clock+12,r24
 224               	.L14:
 225 0188 0895      		ret
 227               	.global	canix_is_date_valid
 229               	canix_is_date_valid:
 230               	/* prologue: function */
 231               	/* frame size = 0 */
 232               	/* stack size = 0 */
 233               	.L__stack_usage = 0
 234 018a 9091 0000 		lds r25,canix_rtc_clock+9
 235 018e 81E0      		ldi r24,lo8(1)
 236 0190 9F3F      		cpi r25,lo8(-1)
 237 0192 01F4      		brne .L21
 238 0194 80E0      		ldi r24,lo8(0)
 239               	.L21:
 240 0196 0895      		ret
 242               	.global	__vector_18
 244               	__vector_18:
 245 0198 1F92      		push __zero_reg__
 246 019a 0F92      		push r0
 247 019c 0FB6      		in r0,__SREG__
 248 019e 0F92      		push r0
 249 01a0 1124      		clr __zero_reg__
 250 01a2 FF92      		push r15
 251 01a4 0F93      		push r16
 252 01a6 1F93      		push r17
 253 01a8 2F93      		push r18
 254 01aa 3F93      		push r19
 255 01ac 4F93      		push r20
 256 01ae 5F93      		push r21
 257 01b0 6F93      		push r22
 258 01b2 7F93      		push r23
 259 01b4 8F93      		push r24
 260 01b6 9F93      		push r25
 261 01b8 AF93      		push r26
 262 01ba BF93      		push r27
 263 01bc EF93      		push r30
 264 01be FF93      		push r31
 265 01c0 DF93      		push r29
 266 01c2 CF93      		push r28
 267 01c4 CDB7      		in r28,__SP_L__
 268 01c6 DEB7      		in r29,__SP_H__
 269 01c8 2C97      		sbiw r28,12
 270 01ca DEBF      		out __SP_H__, r29
 271 01cc CDBF      		out __SP_L__, r28
 272               	/* prologue: Signal */
 273               	/* frame size = 12 */
 274               	/* stack size = 32 */
 275               	.L__stack_usage = 32
 276 01ce 8FEF      		ldi r24,lo8(-1)
 277 01d0 86BD      		out 70-32,r24
 278 01d2 0E94 0000 		call mcp2515_message_available
 279 01d6 8823      		tst r24
 280 01d8 01F4      		brne .+2
 281 01da 00C0      		rjmp .L23
 282 01dc 8E01      		movw r16,r28
 283 01de 0B5F      		subi r16,lo8(-(5))
 284 01e0 1F4F      		sbci r17,hi8(-(5))
 285 01e2 CE01      		movw r24,r28
 286 01e4 0196      		adiw r24,1
 287 01e6 B801      		movw r22,r16
 288 01e8 0E94 0000 		call mcp2515_read_message
 289 01ec F82E      		mov r15,r24
 290 01ee 0E94 0000 		call canix_rxq_size
 291 01f2 8C30      		cpi r24,lo8(12)
 292 01f4 00F0      		brlo .+2
 293 01f6 00C0      		rjmp .L24
 294 01f8 0E94 0000 		call canix_rxq_put_one
 295 01fc 282F      		mov r18,r24
 296 01fe 30E0      		ldi r19,lo8(0)
 297 0200 220F      		lsl r18
 298 0202 331F      		rol r19
 299 0204 F901      		movw r30,r18
 300 0206 93E0      		ldi r25,3
 301 0208 EE0F      	1:	lsl r30
 302 020a FF1F      		rol r31
 303 020c 9A95      		dec r25
 304 020e 01F4      		brne 1b
 305 0210 E21B      		sub r30,r18
 306 0212 F30B      		sbc r31,r19
 307 0214 E050      		subi r30,lo8(-(canix_rx_queue))
 308 0216 F040      		sbci r31,hi8(-(canix_rx_queue))
 309 0218 91E0      		ldi r25,lo8(1)
 310 021a 9083      		st Z,r25
 311 021c 2981      		ldd r18,Y+1
 312 021e 3A81      		ldd r19,Y+2
 313 0220 4B81      		ldd r20,Y+3
 314 0222 5C81      		ldd r21,Y+4
 315 0224 682F      		mov r22,r24
 316 0226 70E0      		ldi r23,lo8(0)
 317 0228 660F      		lsl r22
 318 022a 771F      		rol r23
 319 022c FB01      		movw r30,r22
 320 022e A3E0      		ldi r26,3
 321 0230 EE0F      	1:	lsl r30
 322 0232 FF1F      		rol r31
 323 0234 AA95      		dec r26
 324 0236 01F4      		brne 1b
 325 0238 E61B      		sub r30,r22
 326 023a F70B      		sbc r31,r23
 327 023c E050      		subi r30,lo8(-(canix_rx_queue))
 328 023e F040      		sbci r31,hi8(-(canix_rx_queue))
 329 0240 2183      		std Z+1,r18
 330 0242 3283      		std Z+2,r19
 331 0244 4383      		std Z+3,r20
 332 0246 5483      		std Z+4,r21
 333 0248 282F      		mov r18,r24
 334 024a 30E0      		ldi r19,lo8(0)
 335 024c 220F      		lsl r18
 336 024e 331F      		rol r19
 337 0250 F901      		movw r30,r18
 338 0252 93E0      		ldi r25,3
 339 0254 EE0F      	1:	lsl r30
 340 0256 FF1F      		rol r31
 341 0258 9A95      		dec r25
 342 025a 01F4      		brne 1b
 343 025c E21B      		sub r30,r18
 344 025e F30B      		sbc r31,r19
 345 0260 E050      		subi r30,lo8(-(canix_rx_queue))
 346 0262 F040      		sbci r31,hi8(-(canix_rx_queue))
 347 0264 F582      		std Z+5,r15
 348 0266 D801      		movw r26,r16
 349 0268 20E0      		ldi r18,lo8(0)
 350 026a 30E0      		ldi r19,hi8(0)
 351 026c 00C0      		rjmp .L25
 352               	.L26:
 353 026e 9D91      		ld r25,X+
 354 0270 482F      		mov r20,r24
 355 0272 50E0      		ldi r21,lo8(0)
 356 0274 440F      		lsl r20
 357 0276 551F      		rol r21
 358 0278 FA01      		movw r30,r20
 359 027a 13E0      		ldi r17,3
 360 027c EE0F      	1:	lsl r30
 361 027e FF1F      		rol r31
 362 0280 1A95      		dec r17
 363 0282 01F4      		brne 1b
 364 0284 E41B      		sub r30,r20
 365 0286 F50B      		sbc r31,r21
 366 0288 E050      		subi r30,lo8(-(canix_rx_queue))
 367 028a F040      		sbci r31,hi8(-(canix_rx_queue))
 368 028c E20F      		add r30,r18
 369 028e F31F      		adc r31,r19
 370 0290 9683      		std Z+6,r25
 371 0292 2F5F      		subi r18,lo8(-(1))
 372 0294 3F4F      		sbci r19,hi8(-(1))
 373               	.L25:
 374 0296 2F15      		cp r18,r15
 375 0298 00F0      		brlo .L26
 376 029a 8091 0000 		lds r24,canix_rx_received
 377 029e 9091 0000 		lds r25,canix_rx_received+1
 378 02a2 A091 0000 		lds r26,canix_rx_received+2
 379 02a6 B091 0000 		lds r27,canix_rx_received+3
 380 02aa 0196      		adiw r24,1
 381 02ac A11D      		adc r26,__zero_reg__
 382 02ae B11D      		adc r27,__zero_reg__
 383 02b0 8093 0000 		sts canix_rx_received,r24
 384 02b4 9093 0000 		sts canix_rx_received+1,r25
 385 02b8 A093 0000 		sts canix_rx_received+2,r26
 386 02bc B093 0000 		sts canix_rx_received+3,r27
 387 02c0 00C0      		rjmp .L23
 388               	.L24:
 389 02c2 8091 0000 		lds r24,canix_rx_lost
 390 02c6 9091 0000 		lds r25,canix_rx_lost+1
 391 02ca A091 0000 		lds r26,canix_rx_lost+2
 392 02ce B091 0000 		lds r27,canix_rx_lost+3
 393 02d2 0196      		adiw r24,1
 394 02d4 A11D      		adc r26,__zero_reg__
 395 02d6 B11D      		adc r27,__zero_reg__
 396 02d8 8093 0000 		sts canix_rx_lost,r24
 397 02dc 9093 0000 		sts canix_rx_lost+1,r25
 398 02e0 A093 0000 		sts canix_rx_lost+2,r26
 399 02e4 B093 0000 		sts canix_rx_lost+3,r27
 400               	.L23:
 401 02e8 8091 0000 		lds r24,rtc_clock_counter.1678
 402 02ec 982F      		mov r25,r24
 403 02ee 9F5F      		subi r25,lo8(-(1))
 404 02f0 9093 0000 		sts rtc_clock_counter.1678,r25
 405 02f4 8332      		cpi r24,lo8(35)
 406 02f6 00F4      		brsh .+2
 407 02f8 00C0      		rjmp .L22
 408 02fa 1092 0000 		sts rtc_clock_counter.1678,__zero_reg__
 409 02fe 8091 0000 		lds r24,canix_rtc_clock+4
 410 0302 8F5F      		subi r24,lo8(-(1))
 411 0304 8093 0000 		sts canix_rtc_clock+4,r24
 412 0308 8091 0000 		lds r24,canix_rtc_clock+4
 413 030c 8436      		cpi r24,lo8(100)
 414 030e 01F4      		brne .L28
 415 0310 1092 0000 		sts canix_rtc_clock+4,__zero_reg__
 416 0314 8091 0000 		lds r24,canix_rtc_clock
 417 0318 9091 0000 		lds r25,canix_rtc_clock+1
 418 031c A091 0000 		lds r26,canix_rtc_clock+2
 419 0320 B091 0000 		lds r27,canix_rtc_clock+3
 420 0324 0196      		adiw r24,1
 421 0326 A11D      		adc r26,__zero_reg__
 422 0328 B11D      		adc r27,__zero_reg__
 423 032a 8093 0000 		sts canix_rtc_clock,r24
 424 032e 9093 0000 		sts canix_rtc_clock+1,r25
 425 0332 A093 0000 		sts canix_rtc_clock+2,r26
 426 0336 B093 0000 		sts canix_rtc_clock+3,r27
 427 033a 8091 0000 		lds r24,canix_loop_throughput_counter
 428 033e 9091 0000 		lds r25,canix_loop_throughput_counter+1
 429 0342 9093 0000 		sts canix_loop_throughput+1,r25
 430 0346 8093 0000 		sts canix_loop_throughput,r24
 431 034a 1092 0000 		sts canix_loop_throughput_counter+1,__zero_reg__
 432 034e 1092 0000 		sts canix_loop_throughput_counter,__zero_reg__
 433 0352 0E94 0000 		call canix_update_datetime
 434               	.L28:
 435 0356 00E0      		ldi r16,lo8(rtc_callback)
 436 0358 10E0      		ldi r17,hi8(rtc_callback)
 437               	.L30:
 438 035a D801      		movw r26,r16
 439 035c ED91      		ld r30,X+
 440 035e FD91      		ld r31,X+
 441 0360 8D01      		movw r16,r26
 442 0362 3097      		sbiw r30,0
 443 0364 01F0      		breq .L29
 444 0366 0995      		icall
 445               	.L29:
 446 0368 B0E0      		ldi r27,hi8(rtc_callback+16)
 447 036a 0030      		cpi r16,lo8(rtc_callback+16)
 448 036c 1B07      		cpc r17,r27
 449 036e 01F4      		brne .L30
 450 0370 8091 0000 		lds r24,canix_sleep_ticker
 451 0374 9091 0000 		lds r25,canix_sleep_ticker+1
 452 0378 A091 0000 		lds r26,canix_sleep_ticker+2
 453 037c B091 0000 		lds r27,canix_sleep_ticker+3
 454 0380 1816      		cp __zero_reg__,r24
 455 0382 1906      		cpc __zero_reg__,r25
 456 0384 1A06      		cpc __zero_reg__,r26
 457 0386 1B06      		cpc __zero_reg__,r27
 458 0388 04F4      		brge .L22
 459 038a 8091 0000 		lds r24,canix_sleep_ticker
 460 038e 9091 0000 		lds r25,canix_sleep_ticker+1
 461 0392 A091 0000 		lds r26,canix_sleep_ticker+2
 462 0396 B091 0000 		lds r27,canix_sleep_ticker+3
 463 039a 0197      		sbiw r24,1
 464 039c A109      		sbc r26,__zero_reg__
 465 039e B109      		sbc r27,__zero_reg__
 466 03a0 8093 0000 		sts canix_sleep_ticker,r24
 467 03a4 9093 0000 		sts canix_sleep_ticker+1,r25
 468 03a8 A093 0000 		sts canix_sleep_ticker+2,r26
 469 03ac B093 0000 		sts canix_sleep_ticker+3,r27
 470               	.L22:
 471               	/* epilogue start */
 472 03b0 2C96      		adiw r28,12
 473 03b2 DEBF      		out __SP_H__, r29
 474 03b4 CDBF      		out __SP_L__, r28
 475 03b6 CF91      		pop r28
 476 03b8 DF91      		pop r29
 477 03ba FF91      		pop r31
 478 03bc EF91      		pop r30
 479 03be BF91      		pop r27
 480 03c0 AF91      		pop r26
 481 03c2 9F91      		pop r25
 482 03c4 8F91      		pop r24
 483 03c6 7F91      		pop r23
 484 03c8 6F91      		pop r22
 485 03ca 5F91      		pop r21
 486 03cc 4F91      		pop r20
 487 03ce 3F91      		pop r19
 488 03d0 2F91      		pop r18
 489 03d2 1F91      		pop r17
 490 03d4 0F91      		pop r16
 491 03d6 FF90      		pop r15
 492 03d8 0F90      		pop r0
 493 03da 0FBE      		out __SREG__,r0
 494 03dc 0F90      		pop r0
 495 03de 1F90      		pop __zero_reg__
 496 03e0 1895      		reti
 498               	.global	canix_selfaddr
 500               	canix_selfaddr:
 501 03e2 1F93      		push r17
 502               	/* prologue: function */
 503               	/* frame size = 0 */
 504               	/* stack size = 1 */
 505               	.L__stack_usage = 1
 506 03e4 8091 0000 		lds r24,my_address.1702
 507 03e8 9091 0000 		lds r25,my_address.1702+1
 508 03ec 0097      		sbiw r24,0
 509 03ee 01F4      		brne .L33
 510 03f0 82E0      		ldi r24,lo8(2)
 511 03f2 90E0      		ldi r25,hi8(2)
 512 03f4 0E94 0000 		call __eerd_byte_m644
 513 03f8 182F      		mov r17,r24
 514 03fa 83E0      		ldi r24,lo8(3)
 515 03fc 90E0      		ldi r25,hi8(3)
 516 03fe 0E94 0000 		call __eerd_byte_m644
 517 0402 382F      		mov r19,r24
 518 0404 20E0      		ldi r18,lo8(0)
 519 0406 812F      		mov r24,r17
 520 0408 90E0      		ldi r25,lo8(0)
 521 040a 822B      		or r24,r18
 522 040c 932B      		or r25,r19
 523 040e 9370      		andi r25,hi8(1023)
 524 0410 9093 0000 		sts my_address.1702+1,r25
 525 0414 8093 0000 		sts my_address.1702,r24
 526               	.L33:
 527 0418 8091 0000 		lds r24,my_address.1702
 528 041c 9091 0000 		lds r25,my_address.1702+1
 529               	/* epilogue start */
 530 0420 1F91      		pop r17
 531 0422 0895      		ret
 533               	.global	canix_deliver_frame
 535               	canix_deliver_frame:
 536 0424 0F93      		push r16
 537 0426 1F93      		push r17
 538 0428 CF93      		push r28
 539 042a DF93      		push r29
 540               	/* prologue: function */
 541               	/* frame size = 0 */
 542               	/* stack size = 4 */
 543               	.L__stack_usage = 4
 544 042c 8C01      		movw r16,r24
 545 042e C0E0      		ldi r28,lo8(frame_callback_entry)
 546 0430 D0E0      		ldi r29,hi8(frame_callback_entry)
 547               	.L39:
 548 0432 E881      		ld r30,Y
 549 0434 F981      		ldd r31,Y+1
 550 0436 3097      		sbiw r30,0
 551 0438 01F0      		breq .L35
 552 043a 8A81      		ldd r24,Y+2
 553 043c 9B81      		ldd r25,Y+3
 554 043e 2FEF      		ldi r18,hi8(-1)
 555 0440 8F3F      		cpi r24,lo8(-1)
 556 0442 9207      		cpc r25,r18
 557 0444 01F0      		breq .L36
 558 0446 D801      		movw r26,r16
 559 0448 1296      		adiw r26,2
 560 044a 2D91      		ld r18,X+
 561 044c 3C91      		ld r19,X
 562 044e 1397      		sbiw r26,2+1
 563 0450 8217      		cp r24,r18
 564 0452 9307      		cpc r25,r19
 565 0454 01F4      		brne .L35
 566               	.L36:
 567 0456 8C81      		ldd r24,Y+4
 568 0458 8823      		tst r24
 569 045a 01F0      		breq .L37
 570 045c D801      		movw r26,r16
 571 045e 1496      		adiw r26,4
 572 0460 9C91      		ld r25,X
 573 0462 1497      		sbiw r26,4
 574 0464 8917      		cp r24,r25
 575 0466 01F4      		brne .L35
 576               	.L37:
 577 0468 8D81      		ldd r24,Y+5
 578 046a 8823      		tst r24
 579 046c 01F0      		breq .L38
 580 046e D801      		movw r26,r16
 581 0470 1696      		adiw r26,6
 582 0472 9C91      		ld r25,X
 583 0474 1697      		sbiw r26,6
 584 0476 8917      		cp r24,r25
 585 0478 01F4      		brne .L35
 586               	.L38:
 587 047a C801      		movw r24,r16
 588 047c 0995      		icall
 589               	.L35:
 590 047e 2696      		adiw r28,6
 591 0480 B0E0      		ldi r27,hi8(frame_callback_entry+96)
 592 0482 C030      		cpi r28,lo8(frame_callback_entry+96)
 593 0484 DB07      		cpc r29,r27
 594 0486 01F4      		brne .L39
 595               	/* epilogue start */
 596 0488 DF91      		pop r29
 597 048a CF91      		pop r28
 598 048c 1F91      		pop r17
 599 048e 0F91      		pop r16
 600 0490 0895      		ret
 602               	.global	canix_frame_send_with_prio
 604               	canix_frame_send_with_prio:
 605 0492 A1E0      		ldi r26,lo8(1)
 606 0494 B0E0      		ldi r27,hi8(1)
 607 0496 E0E0      		ldi r30,lo8(gs(1f))
 608 0498 F0E0      		ldi r31,hi8(gs(1f))
 609 049a 0C94 0000 		jmp __prologue_saves__+((18 - 4) * 2)
 610               	1:
 611               	/* prologue: function */
 612               	/* frame size = 1 */
 613               	/* stack size = 5 */
 614               	.L__stack_usage = 5
 615 049e 8C01      		movw r16,r24
 616 04a0 6983      		std Y+1,r22
 617 04a2 0E94 0000 		call can_any_sendable
 618 04a6 6981      		ldd r22,Y+1
 619 04a8 8823      		tst r24
 620 04aa 01F4      		brne .+2
 621 04ac 00C0      		rjmp .L42
 622 04ae F801      		movw r30,r16
 623 04b0 8281      		ldd r24,Z+2
 624 04b2 9381      		ldd r25,Z+3
 625 04b4 A0E0      		ldi r26,lo8(0)
 626 04b6 B0E0      		ldi r27,hi8(0)
 627 04b8 9370      		andi r25,hi8(1023)
 628 04ba A070      		andi r26,hlo8(1023)
 629 04bc B070      		andi r27,hhi8(1023)
 630 04be 2AE0      		ldi r18,10
 631 04c0 880F      	1:	lsl r24
 632 04c2 991F      		rol r25
 633 04c4 AA1F      		rol r26
 634 04c6 BB1F      		rol r27
 635 04c8 2A95      		dec r18
 636 04ca 01F4      		brne 1b
 637 04cc 2481      		ldd r18,Z+4
 638 04ce 30E0      		ldi r19,lo8(0)
 639 04d0 40E0      		ldi r20,lo8(0)
 640 04d2 50E0      		ldi r21,hi8(0)
 641 04d4 2770      		andi r18,lo8(7)
 642 04d6 3070      		andi r19,hi8(7)
 643 04d8 4070      		andi r20,hlo8(7)
 644 04da 5070      		andi r21,hhi8(7)
 645 04dc 74E1      		ldi r23,20
 646 04de 220F      	1:	lsl r18
 647 04e0 331F      		rol r19
 648 04e2 441F      		rol r20
 649 04e4 551F      		rol r21
 650 04e6 7A95      		dec r23
 651 04e8 01F4      		brne 1b
 652 04ea 822B      		or r24,r18
 653 04ec 932B      		or r25,r19
 654 04ee A42B      		or r26,r20
 655 04f0 B52B      		or r27,r21
 656 04f2 4081      		ld r20,Z
 657 04f4 5181      		ldd r21,Z+1
 658 04f6 9A01      		movw r18,r20
 659 04f8 40E0      		ldi r20,lo8(0)
 660 04fa 50E0      		ldi r21,hi8(0)
 661 04fc 3370      		andi r19,hi8(1023)
 662 04fe 4070      		andi r20,hlo8(1023)
 663 0500 5070      		andi r21,hhi8(1023)
 664 0502 822B      		or r24,r18
 665 0504 932B      		or r25,r19
 666 0506 A42B      		or r26,r20
 667 0508 B52B      		or r27,r21
 668 050a 262F      		mov r18,r22
 669 050c 30E0      		ldi r19,lo8(0)
 670 050e 40E0      		ldi r20,lo8(0)
 671 0510 50E0      		ldi r21,hi8(0)
 672 0512 522F      		mov r21,r18
 673 0514 4427      		clr r20
 674 0516 3327      		clr r19
 675 0518 2227      		clr r18
 676 051a 822B      		or r24,r18
 677 051c 932B      		or r25,r19
 678 051e A42B      		or r26,r20
 679 0520 B52B      		or r27,r21
 680 0522 A801      		movw r20,r16
 681 0524 4A5F      		subi r20,lo8(-(6))
 682 0526 5F4F      		sbci r21,hi8(-(6))
 683 0528 BC01      		movw r22,r24
 684 052a CD01      		movw r24,r26
 685 052c 2581      		ldd r18,Z+5
 686 052e 0E94 0000 		call can_send_message
 687               	.L42:
 688 0532 C801      		movw r24,r16
 689 0534 0E94 0000 		call canix_deliver_frame
 690               	/* epilogue start */
 691 0538 2196      		adiw r28,1
 692 053a E4E0      		ldi r30, lo8(4)
 693 053c 0C94 0000 		jmp __epilogue_restores__ + ((18 - 4) * 2)
 695               	.global	canix_frame_send
 697               	canix_frame_send:
 698               	/* prologue: function */
 699               	/* frame size = 0 */
 700               	/* stack size = 0 */
 701               	.L__stack_usage = 0
 702 0540 63E0      		ldi r22,lo8(3)
 703 0542 0E94 0000 		call canix_frame_send_with_prio
 704               	/* epilogue start */
 705 0546 0895      		ret
 707               	.global	canix_reg_frame_callback
 709               	canix_reg_frame_callback:
 710 0548 CF93      		push r28
 711 054a DF93      		push r29
 712               	/* prologue: function */
 713               	/* frame size = 0 */
 714               	/* stack size = 2 */
 715               	.L__stack_usage = 2
 716 054c E0E0      		ldi r30,lo8(frame_callback_entry)
 717 054e F0E0      		ldi r31,hi8(frame_callback_entry)
 718 0550 A0E0      		ldi r26,lo8(0)
 719 0552 B0E0      		ldi r27,hi8(0)
 720               	.L47:
 721 0554 C081      		ld r28,Z
 722 0556 D181      		ldd r29,Z+1
 723 0558 2097      		sbiw r28,0
 724 055a 01F4      		brne .L45
 725 055c FD01      		movw r30,r26
 726 055e EE0F      		lsl r30
 727 0560 FF1F      		rol r31
 728 0562 EA0F      		add r30,r26
 729 0564 FB1F      		adc r31,r27
 730 0566 EE0F      		lsl r30
 731 0568 FF1F      		rol r31
 732 056a E050      		subi r30,lo8(-(frame_callback_entry))
 733 056c F040      		sbci r31,hi8(-(frame_callback_entry))
 734 056e 9183      		std Z+1,r25
 735 0570 8083      		st Z,r24
 736 0572 7383      		std Z+3,r23
 737 0574 6283      		std Z+2,r22
 738 0576 4483      		std Z+4,r20
 739 0578 2583      		std Z+5,r18
 740 057a 00C0      		rjmp .L44
 741               	.L45:
 742 057c 1196      		adiw r26,1
 743 057e 3696      		adiw r30,6
 744 0580 A031      		cpi r26,16
 745 0582 B105      		cpc r27,__zero_reg__
 746 0584 01F4      		brne .L47
 747 0586 00D0      		rcall .
 748 0588 0F92      		push __tmp_reg__
 749 058a 81E0      		ldi r24,lo8(1)
 750 058c EDB7      		in r30,__SP_L__
 751 058e FEB7      		in r31,__SP_H__
 752 0590 8183      		std Z+1,r24
 753 0592 80E0      		ldi r24,lo8(__c.1728)
 754 0594 90E0      		ldi r25,hi8(__c.1728)
 755 0596 9383      		std Z+3,r25
 756 0598 8283      		std Z+2,r24
 757 059a 0E94 0000 		call canix_syslog_P
 758 059e 0F90      		pop __tmp_reg__
 759 05a0 0F90      		pop __tmp_reg__
 760 05a2 0F90      		pop __tmp_reg__
 761               	.L44:
 762               	/* epilogue start */
 763 05a4 DF91      		pop r29
 764 05a6 CF91      		pop r28
 765 05a8 0895      		ret
 767               	.global	canix_init
 769               	canix_init:
 770 05aa 1F93      		push r17
 771               	/* prologue: function */
 772               	/* frame size = 0 */
 773               	/* stack size = 1 */
 774               	.L__stack_usage = 1
 775 05ac 0E94 0000 		call canix_rtc_init
 776 05b0 E0E0      		ldi r30,lo8(frame_callback_entry)
 777 05b2 F0E0      		ldi r31,hi8(frame_callback_entry)
 778               	.L50:
 779 05b4 1182      		std Z+1,__zero_reg__
 780 05b6 1082      		st Z,__zero_reg__
 781 05b8 3696      		adiw r30,6
 782 05ba 80E0      		ldi r24,hi8(frame_callback_entry+96)
 783 05bc E030      		cpi r30,lo8(frame_callback_entry+96)
 784 05be F807      		cpc r31,r24
 785 05c0 01F4      		brne .L50
 786 05c2 1092 0000 		sts idle_callback+1,__zero_reg__
 787 05c6 1092 0000 		sts idle_callback,__zero_reg__
 788 05ca 1092 0000 		sts idle_callback+2+1,__zero_reg__
 789 05ce 1092 0000 		sts idle_callback+2,__zero_reg__
 790 05d2 1092 0000 		sts idle_callback+4+1,__zero_reg__
 791 05d6 1092 0000 		sts idle_callback+4,__zero_reg__
 792 05da 1092 0000 		sts idle_callback+6+1,__zero_reg__
 793 05de 1092 0000 		sts idle_callback+6,__zero_reg__
 794 05e2 1092 0000 		sts idle_callback+8+1,__zero_reg__
 795 05e6 1092 0000 		sts idle_callback+8,__zero_reg__
 796 05ea 1092 0000 		sts idle_callback+10+1,__zero_reg__
 797 05ee 1092 0000 		sts idle_callback+10,__zero_reg__
 798 05f2 1092 0000 		sts idle_callback+12+1,__zero_reg__
 799 05f6 1092 0000 		sts idle_callback+12,__zero_reg__
 800 05fa 1092 0000 		sts idle_callback+14+1,__zero_reg__
 801 05fe 1092 0000 		sts idle_callback+14,__zero_reg__
 802 0602 1092 0000 		sts rtc_callback+1,__zero_reg__
 803 0606 1092 0000 		sts rtc_callback,__zero_reg__
 804 060a 1092 0000 		sts rtc_callback+2+1,__zero_reg__
 805 060e 1092 0000 		sts rtc_callback+2,__zero_reg__
 806 0612 1092 0000 		sts rtc_callback+4+1,__zero_reg__
 807 0616 1092 0000 		sts rtc_callback+4,__zero_reg__
 808 061a 1092 0000 		sts rtc_callback+6+1,__zero_reg__
 809 061e 1092 0000 		sts rtc_callback+6,__zero_reg__
 810 0622 1092 0000 		sts rtc_callback+8+1,__zero_reg__
 811 0626 1092 0000 		sts rtc_callback+8,__zero_reg__
 812 062a 1092 0000 		sts rtc_callback+10+1,__zero_reg__
 813 062e 1092 0000 		sts rtc_callback+10,__zero_reg__
 814 0632 1092 0000 		sts rtc_callback+12+1,__zero_reg__
 815 0636 1092 0000 		sts rtc_callback+12,__zero_reg__
 816 063a 1092 0000 		sts rtc_callback+14+1,__zero_reg__
 817 063e 1092 0000 		sts rtc_callback+14,__zero_reg__
 818 0642 80E0      		ldi r24,lo8(0)
 819 0644 90E0      		ldi r25,hi8(0)
 820               	.L51:
 821 0646 9C01      		movw r18,r24
 822 0648 220F      		lsl r18
 823 064a 331F      		rol r19
 824 064c F901      		movw r30,r18
 825 064e 63E0      		ldi r22,3
 826 0650 EE0F      	1:	lsl r30
 827 0652 FF1F      		rol r31
 828 0654 6A95      		dec r22
 829 0656 01F4      		brne 1b
 830 0658 E21B      		sub r30,r18
 831 065a F30B      		sbc r31,r19
 832 065c E050      		subi r30,lo8(-(canix_rx_queue))
 833 065e F040      		sbci r31,hi8(-(canix_rx_queue))
 834 0660 1082      		st Z,__zero_reg__
 835 0662 0196      		adiw r24,1
 836 0664 8C30      		cpi r24,12
 837 0666 9105      		cpc r25,__zero_reg__
 838 0668 01F4      		brne .L51
 839 066a 0E94 0000 		call spi_init
 840 066e 0E94 0000 		call can_open_interface
 841 0672 182F      		mov r17,r24
 842 0674 0E94 0000 		call canix_selfaddr
 843 0678 BC01      		movw r22,r24
 844 067a 80E0      		ldi r24,lo8(gs(canix_SFP_HMS_handler))
 845 067c 90E0      		ldi r25,hi8(gs(canix_SFP_HMS_handler))
 846 067e 41E0      		ldi r20,lo8(1)
 847 0680 21E0      		ldi r18,lo8(1)
 848 0682 0E94 0000 		call canix_reg_frame_callback
 849 0686 80E0      		ldi r24,lo8(gs(canix_SFP_HMS_handler))
 850 0688 90E0      		ldi r25,hi8(gs(canix_SFP_HMS_handler))
 851 068a 64E2      		ldi r22,lo8(36)
 852 068c 70E0      		ldi r23,hi8(36)
 853 068e 41E0      		ldi r20,lo8(1)
 854 0690 21E0      		ldi r18,lo8(1)
 855 0692 0E94 0000 		call canix_reg_frame_callback
 856 0696 80E0      		ldi r24,lo8(gs(canix_SFP_RTS_handler))
 857 0698 90E0      		ldi r25,hi8(gs(canix_SFP_RTS_handler))
 858 069a 64E2      		ldi r22,lo8(36)
 859 069c 70E0      		ldi r23,hi8(36)
 860 069e 41E0      		ldi r20,lo8(1)
 861 06a0 26E0      		ldi r18,lo8(6)
 862 06a2 0E94 0000 		call canix_reg_frame_callback
 863 06a6 0E94 0000 		call canix_selfaddr
 864 06aa BC01      		movw r22,r24
 865 06ac 80E0      		ldi r24,lo8(gs(canix_SFP_RTS_handler))
 866 06ae 90E0      		ldi r25,hi8(gs(canix_SFP_RTS_handler))
 867 06b0 41E0      		ldi r20,lo8(1)
 868 06b2 26E0      		ldi r18,lo8(6)
 869 06b4 0E94 0000 		call canix_reg_frame_callback
 870 06b8 85E0      		ldi r24,lo8(5)
 871 06ba 90E0      		ldi r25,hi8(5)
 872 06bc 0E94 0000 		call __eerd_byte_m644
 873 06c0 0E94 0000 		call canix_set_syslog_level
 874               	/* #APP */
 875               	 ;  400 "../../canix/canix.c" 1
 876 06c4 7894      		sei
 877               	 ;  0 "" 2
 878               	/* #NOAPP */
 879 06c6 0E94 0000 		call eds_init
 880 06ca 0E94 0000 		call canix_selfaddr
 881 06ce BC01      		movw r22,r24
 882 06d0 80E0      		ldi r24,lo8(gs(eds_can_callback))
 883 06d2 90E0      		ldi r25,hi8(gs(eds_can_callback))
 884 06d4 41E0      		ldi r20,lo8(1)
 885 06d6 27E0      		ldi r18,lo8(7)
 886 06d8 0E94 0000 		call canix_reg_frame_callback
 887 06dc 812F      		mov r24,r17
 888               	/* epilogue start */
 889 06de 1F91      		pop r17
 890 06e0 0895      		ret
 892               	.global	canix_reg_idle_callback
 894               	canix_reg_idle_callback:
 895               	/* prologue: function */
 896               	/* frame size = 0 */
 897               	/* stack size = 0 */
 898               	.L__stack_usage = 0
 899 06e2 E0E0      		ldi r30,lo8(idle_callback)
 900 06e4 F0E0      		ldi r31,hi8(idle_callback)
 901 06e6 20E0      		ldi r18,lo8(0)
 902 06e8 30E0      		ldi r19,hi8(0)
 903               	.L57:
 904 06ea 4191      		ld r20,Z+
 905 06ec 5191      		ld r21,Z+
 906 06ee 4115      		cp r20,__zero_reg__
 907 06f0 5105      		cpc r21,__zero_reg__
 908 06f2 01F4      		brne .L55
 909 06f4 F901      		movw r30,r18
 910 06f6 EE0F      		lsl r30
 911 06f8 FF1F      		rol r31
 912 06fa E050      		subi r30,lo8(-(idle_callback))
 913 06fc F040      		sbci r31,hi8(-(idle_callback))
 914 06fe 9183      		std Z+1,r25
 915 0700 8083      		st Z,r24
 916 0702 0895      		ret
 917               	.L55:
 918 0704 2F5F      		subi r18,lo8(-(1))
 919 0706 3F4F      		sbci r19,hi8(-(1))
 920 0708 2830      		cpi r18,8
 921 070a 3105      		cpc r19,__zero_reg__
 922 070c 01F4      		brne .L57
 923 070e 00D0      		rcall .
 924 0710 0F92      		push __tmp_reg__
 925 0712 81E0      		ldi r24,lo8(1)
 926 0714 EDB7      		in r30,__SP_L__
 927 0716 FEB7      		in r31,__SP_H__
 928 0718 8183      		std Z+1,r24
 929 071a 80E0      		ldi r24,lo8(__c.1737)
 930 071c 90E0      		ldi r25,hi8(__c.1737)
 931 071e 9383      		std Z+3,r25
 932 0720 8283      		std Z+2,r24
 933 0722 0E94 0000 		call canix_syslog_P
 934 0726 0F90      		pop __tmp_reg__
 935 0728 0F90      		pop __tmp_reg__
 936 072a 0F90      		pop __tmp_reg__
 937 072c 0895      		ret
 939               	.global	canix_reg_rtc_callback
 941               	canix_reg_rtc_callback:
 942               	/* prologue: function */
 943               	/* frame size = 0 */
 944               	/* stack size = 0 */
 945               	.L__stack_usage = 0
 946 072e E0E0      		ldi r30,lo8(rtc_callback)
 947 0730 F0E0      		ldi r31,hi8(rtc_callback)
 948 0732 20E0      		ldi r18,lo8(0)
 949 0734 30E0      		ldi r19,hi8(0)
 950               	.L62:
 951 0736 4191      		ld r20,Z+
 952 0738 5191      		ld r21,Z+
 953 073a 4115      		cp r20,__zero_reg__
 954 073c 5105      		cpc r21,__zero_reg__
 955 073e 01F4      		brne .L60
 956 0740 F901      		movw r30,r18
 957 0742 EE0F      		lsl r30
 958 0744 FF1F      		rol r31
 959 0746 E050      		subi r30,lo8(-(rtc_callback))
 960 0748 F040      		sbci r31,hi8(-(rtc_callback))
 961 074a 9183      		std Z+1,r25
 962 074c 8083      		st Z,r24
 963 074e 0895      		ret
 964               	.L60:
 965 0750 2F5F      		subi r18,lo8(-(1))
 966 0752 3F4F      		sbci r19,hi8(-(1))
 967 0754 2830      		cpi r18,8
 968 0756 3105      		cpc r19,__zero_reg__
 969 0758 01F4      		brne .L62
 970 075a 00D0      		rcall .
 971 075c 0F92      		push __tmp_reg__
 972 075e 81E0      		ldi r24,lo8(1)
 973 0760 EDB7      		in r30,__SP_L__
 974 0762 FEB7      		in r31,__SP_H__
 975 0764 8183      		std Z+1,r24
 976 0766 80E0      		ldi r24,lo8(__c.1746)
 977 0768 90E0      		ldi r25,hi8(__c.1746)
 978 076a 9383      		std Z+3,r25
 979 076c 8283      		std Z+2,r24
 980 076e 0E94 0000 		call canix_syslog_P
 981 0772 0F90      		pop __tmp_reg__
 982 0774 0F90      		pop __tmp_reg__
 983 0776 0F90      		pop __tmp_reg__
 984 0778 0895      		ret
 986               	.global	canix_process_messages
 988               	canix_process_messages:
 989 077a A2E1      		ldi r26,lo8(18)
 990 077c B0E0      		ldi r27,hi8(18)
 991 077e E0E0      		ldi r30,lo8(gs(1f))
 992 0780 F0E0      		ldi r31,hi8(gs(1f))
 993 0782 0C94 0000 		jmp __prologue_saves__+((18 - 10) * 2)
 994               	1:
 995               	/* prologue: function */
 996               	/* frame size = 18 */
 997               	/* stack size = 28 */
 998               	.L__stack_usage = 28
 999 0786 00E0      		ldi r16,lo8(idle_callback)
 1000 0788 10E0      		ldi r17,hi8(idle_callback)
 1001 078a E5E0      		ldi r30,lo8(5)
 1002 078c CE2E      		mov r12,r30
 1003 078e D12C      		mov r13,__zero_reg__
 1004 0790 CC0E      		add r12,r28
 1005 0792 DD1E      		adc r13,r29
 1006 0794 7BE0      		ldi r23,lo8(11)
 1007 0796 A72E      		mov r10,r23
 1008 0798 B12C      		mov r11,__zero_reg__
 1009 079a AC0E      		add r10,r28
 1010 079c BD1E      		adc r11,r29
 1011 079e 7E01      		movw r14,r28
 1012 07a0 0894      		sec
 1013 07a2 E11C      		adc r14,__zero_reg__
 1014 07a4 F11C      		adc r15,__zero_reg__
 1015               	.L67:
 1016 07a6 0E94 0000 		call can_message_available
 1017 07aa 8823      		tst r24
 1018 07ac 01F0      		breq .L65
 1019 07ae C701      		movw r24,r14
 1020 07b0 B501      		movw r22,r10
 1021 07b2 0E94 0000 		call can_read_message
 1022 07b6 8A87      		std Y+10,r24
 1023 07b8 8981      		ldd r24,Y+1
 1024 07ba 9A81      		ldd r25,Y+2
 1025 07bc AB81      		ldd r26,Y+3
 1026 07be BC81      		ldd r27,Y+4
 1027 07c0 9C01      		movw r18,r24
 1028 07c2 AD01      		movw r20,r26
 1029 07c4 6AE0      		ldi r22,10
 1030 07c6 5695      	1:	lsr r21
 1031 07c8 4795      		ror r20
 1032 07ca 3795      		ror r19
 1033 07cc 2795      		ror r18
 1034 07ce 6A95      		dec r22
 1035 07d0 01F4      		brne 1b
 1036 07d2 3370      		andi r19,hi8(1023)
 1037 07d4 3887      		std Y+8,r19
 1038 07d6 2F83      		std Y+7,r18
 1039 07d8 9C01      		movw r18,r24
 1040 07da 3370      		andi r19,hi8(1023)
 1041 07dc 3E83      		std Y+6,r19
 1042 07de 2D83      		std Y+5,r18
 1043 07e0 24E1      		ldi r18,20
 1044 07e2 B695      	1:	lsr r27
 1045 07e4 A795      		ror r26
 1046 07e6 9795      		ror r25
 1047 07e8 8795      		ror r24
 1048 07ea 2A95      		dec r18
 1049 07ec 01F4      		brne 1b
 1050 07ee 8770      		andi r24,lo8(7)
 1051 07f0 8987      		std Y+9,r24
 1052 07f2 C601      		movw r24,r12
 1053 07f4 0E94 0000 		call canix_deliver_frame
 1054 07f8 00C0      		rjmp .L66
 1055               	.L65:
 1056 07fa D801      		movw r26,r16
 1057 07fc ED91      		ld r30,X+
 1058 07fe FC91      		ld r31,X
 1059 0800 1197      		sbiw r26,1
 1060 0802 3097      		sbiw r30,0
 1061 0804 01F0      		breq .L66
 1062 0806 0995      		icall
 1063               	.L66:
 1064 0808 0E5F      		subi r16,lo8(-(2))
 1065 080a 1F4F      		sbci r17,hi8(-(2))
 1066 080c B0E0      		ldi r27,hi8(idle_callback+16)
 1067 080e 0030      		cpi r16,lo8(idle_callback+16)
 1068 0810 1B07      		cpc r17,r27
 1069 0812 01F4      		brne .L67
 1070               	/* epilogue start */
 1071 0814 6296      		adiw r28,18
 1072 0816 EAE0      		ldi r30, lo8(10)
 1073 0818 0C94 0000 		jmp __epilogue_restores__ + ((18 - 10) * 2)
 1075               	.global	canix_mainloop
 1077               	canix_mainloop:
 1078               	/* prologue: function */
 1079               	/* frame size = 0 */
 1080               	/* stack size = 0 */
 1081               	.L__stack_usage = 0
 1082 081c 1092 0000 		sts canix_loop_throughput_counter+1,__zero_reg__
 1083 0820 1092 0000 		sts canix_loop_throughput_counter,__zero_reg__
 1084               	.L70:
 1085               	/* #APP */
 1086               	 ;  569 "../../canix/canix.c" 1
 1087 0824 A895      		wdr
 1088               	 ;  0 "" 2
 1089               	/* #NOAPP */
 1090 0826 0E94 0000 		call canix_process_messages
 1091 082a 8091 0000 		lds r24,canix_loop_throughput_counter
 1092 082e 9091 0000 		lds r25,canix_loop_throughput_counter+1
 1093 0832 0196      		adiw r24,1
 1094 0834 9093 0000 		sts canix_loop_throughput_counter+1,r25
 1095 0838 8093 0000 		sts canix_loop_throughput_counter,r24
 1096 083c 00C0      		rjmp .L70
 1098               	.global	canix_reset
 1100               	canix_reset:
 1101               	/* prologue: function */
 1102               	/* frame size = 0 */
 1103               	/* stack size = 0 */
 1104               	.L__stack_usage = 0
 1105 083e 28E0      		ldi r18,lo8(8)
 1106 0840 88E1      		ldi r24,lo8(24)
 1107 0842 90E0      		ldi r25,hi8(24)
 1108               	/* #APP */
 1109               	 ;  578 "../../canix/canix.c" 1
 1110 0844 0FB6      		in __tmp_reg__,__SREG__
 1111 0846 F894      		cli
 1112 0848 A895      		wdr
 1113 084a 8093 6000 		sts 96,r24
 1114 084e 0FBE      		out __SREG__,__tmp_reg__
 1115 0850 2093 6000 		sts 96,r18
 1116               		
 1117               	 ;  0 "" 2
 1118               	/* #NOAPP */
 1119               	.L72:
 1120 0854 00C0      		rjmp .L72
 1122               	.global	canix_sleep_100th
 1124               	canix_sleep_100th:
 1125               	/* prologue: function */
 1126               	/* frame size = 0 */
 1127               	/* stack size = 0 */
 1128               	.L__stack_usage = 0
 1129 0856 9091 0000 		lds r25,running.1768
 1130 085a 9923      		tst r25
 1131 085c 01F4      		brne .L73
 1132 085e 91E0      		ldi r25,lo8(1)
 1133 0860 9093 0000 		sts running.1768,r25
 1134 0864 90E0      		ldi r25,lo8(0)
 1135 0866 A0E0      		ldi r26,lo8(0)
 1136 0868 B0E0      		ldi r27,hi8(0)
 1137 086a 8093 0000 		sts canix_sleep_ticker,r24
 1138 086e 9093 0000 		sts canix_sleep_ticker+1,r25
 1139 0872 A093 0000 		sts canix_sleep_ticker+2,r26
 1140 0876 B093 0000 		sts canix_sleep_ticker+3,r27
 1141               	.L75:
 1142 087a 0E94 0000 		call canix_process_messages
 1143 087e 8091 0000 		lds r24,canix_sleep_ticker
 1144 0882 9091 0000 		lds r25,canix_sleep_ticker+1
 1145 0886 A091 0000 		lds r26,canix_sleep_ticker+2
 1146 088a B091 0000 		lds r27,canix_sleep_ticker+3
 1147 088e 0097      		sbiw r24,0
 1148 0890 A105      		cpc r26,__zero_reg__
 1149 0892 B105      		cpc r27,__zero_reg__
 1150 0894 01F4      		brne .L75
 1151 0896 1092 0000 		sts running.1768,__zero_reg__
 1152               	.L73:
 1153 089a 0895      		ret
 1155               	.global	canix_rx_received
 1156               	.global	canix_rx_received
 1157               		.section .bss
 1160               	canix_rx_received:
 1161 0000 0000 0000 		.skip 4,0
 1162               	.global	canix_rx_lost
 1163               	.global	canix_rx_lost
 1166               	canix_rx_lost:
 1167 0004 0000 0000 		.skip 4,0
 1168               	.global	canix_tx_sent
 1169               	.global	canix_tx_sent
 1172               	canix_tx_sent:
 1173 0008 0000 0000 		.skip 4,0
 1174               	.global	canix_tx_dropped
 1175               	.global	canix_tx_dropped
 1178               	canix_tx_dropped:
 1179 000c 0000 0000 		.skip 4,0
 1180               	.global	canix_version
 1181               		.section	.progmem.data,"a",@progbits
 1184               	canix_version:
 1185 0000 4341 4E49 		.string	"CANIX_VERSION_0.9.5_"
 1185      585F 5645 
 1185      5253 494F 
 1185      4E5F 302E 
 1185      392E 355F 
 1186               		.comm canix_rx_queue,168,1
 1187               		.comm canix_rtc_clock,13,1
 1188               		.comm canix_sleep_ticker,4,1
 1189               		.comm canix_loop_throughput_counter,2,1
 1190               		.comm canix_loop_throughput,2,1
 1191               		.lcomm running.1768,1
 1192               		.lcomm idle_callback,16
 1193               		.lcomm rtc_callback,16
 1196               	__c.1746:
 1197 0015 7274 633A 		.string	"rtc: no more handlers"
 1197      206E 6F20 
 1197      6D6F 7265 
 1197      2068 616E 
 1197      646C 6572 
 1200               	__c.1737:
 1201 002b 6964 6C65 		.string	"idle: no more handlers"
 1201      3A20 6E6F 
 1201      206D 6F72 
 1201      6520 6861 
 1201      6E64 6C65 
 1202               		.lcomm frame_callback_entry,96
 1205               	__c.1728:
 1206 0042 7265 675F 		.string	"reg_frame: no more handlers"
 1206      6672 616D 
 1206      653A 206E 
 1206      6F20 6D6F 
 1206      7265 2068 
 1207               		.lcomm my_address.1702,2
 1208               		.lcomm rtc_clock_counter.1678,1
 1209               		.data
 1212               	CSWTCH.20:
 1213 0000 1F        		.byte	31
 1214 0001 1C        		.byte	28
 1215 0002 1F        		.byte	31
 1216 0003 1E        		.byte	30
 1217 0004 1F        		.byte	31
 1218 0005 1E        		.byte	30
 1219 0006 1F        		.byte	31
 1220 0007 1F        		.byte	31
 1221 0008 1E        		.byte	30
 1222 0009 1F        		.byte	31
 1223 000a 1E        		.byte	30
 1224 000b 1F        		.byte	31
 1225               	.global __do_copy_data
 1226               	.global __do_clear_bss
DEFINED SYMBOLS
                            *ABS*:00000000 canix.c
     /tmp/cccO4vn7.s:2      *ABS*:0000003f __SREG__
     /tmp/cccO4vn7.s:3      *ABS*:0000003e __SP_H__
     /tmp/cccO4vn7.s:4      *ABS*:0000003d __SP_L__
     /tmp/cccO4vn7.s:5      *ABS*:00000034 __CCP__
     /tmp/cccO4vn7.s:6      *ABS*:00000000 __tmp_reg__
     /tmp/cccO4vn7.s:7      *ABS*:00000001 __zero_reg__
     /tmp/cccO4vn7.s:11     .text:00000000 canix_rxq_size
                            *COM*:000000a8 canix_rx_queue
     /tmp/cccO4vn7.s:47     .text:00000032 canix_rxq_fetch_one
     /tmp/cccO4vn7.s:83     .text:00000066 canix_rxq_put_one
     /tmp/cccO4vn7.s:119    .text:0000009a canix_rtc_init
                            *COM*:0000000d canix_rtc_clock
     /tmp/cccO4vn7.s:150    .text:000000ca canix_update_datetime
     /tmp/cccO4vn7.s:1212   .data:00000000 CSWTCH.20
     /tmp/cccO4vn7.s:229    .text:0000018a canix_is_date_valid
     /tmp/cccO4vn7.s:244    .text:00000198 __vector_18
     /tmp/cccO4vn7.s:1160   .bss:00000000 canix_rx_received
     /tmp/cccO4vn7.s:1166   .bss:00000004 canix_rx_lost
     /tmp/cccO4vn7.s:1207   .bss:00000093 rtc_clock_counter.1678
                            *COM*:00000002 canix_loop_throughput_counter
                            *COM*:00000002 canix_loop_throughput
     /tmp/cccO4vn7.s:1192   .bss:00000021 rtc_callback
                            *COM*:00000004 canix_sleep_ticker
     /tmp/cccO4vn7.s:500    .text:000003e2 canix_selfaddr
     /tmp/cccO4vn7.s:1202   .bss:00000091 my_address.1702
     /tmp/cccO4vn7.s:535    .text:00000424 canix_deliver_frame
     /tmp/cccO4vn7.s:1193   .bss:00000031 frame_callback_entry
     /tmp/cccO4vn7.s:604    .text:00000492 canix_frame_send_with_prio
     /tmp/cccO4vn7.s:697    .text:00000540 canix_frame_send
     /tmp/cccO4vn7.s:709    .text:00000548 canix_reg_frame_callback
     /tmp/cccO4vn7.s:1205   .progmem.data:00000042 __c.1728
     /tmp/cccO4vn7.s:769    .text:000005aa canix_init
     /tmp/cccO4vn7.s:1191   .bss:00000011 idle_callback
     /tmp/cccO4vn7.s:894    .text:000006e2 canix_reg_idle_callback
     /tmp/cccO4vn7.s:1200   .progmem.data:0000002b __c.1737
     /tmp/cccO4vn7.s:941    .text:0000072e canix_reg_rtc_callback
     /tmp/cccO4vn7.s:1196   .progmem.data:00000015 __c.1746
     /tmp/cccO4vn7.s:988    .text:0000077a canix_process_messages
     /tmp/cccO4vn7.s:1077   .text:0000081c canix_mainloop
     /tmp/cccO4vn7.s:1100   .text:0000083e canix_reset
     /tmp/cccO4vn7.s:1124   .text:00000856 canix_sleep_100th
                             .bss:00000010 running.1768
     /tmp/cccO4vn7.s:1172   .bss:00000008 canix_tx_sent
     /tmp/cccO4vn7.s:1178   .bss:0000000c canix_tx_dropped
     /tmp/cccO4vn7.s:1184   .progmem.data:00000000 canix_version

UNDEFINED SYMBOLS
mcp2515_message_available
mcp2515_read_message
__eerd_byte_m644
__prologue_saves__
can_any_sendable
can_send_message
__epilogue_restores__
canix_syslog_P
spi_init
can_open_interface
canix_SFP_HMS_handler
canix_SFP_RTS_handler
canix_set_syslog_level
eds_init
eds_can_callback
can_message_available
can_read_message
__do_copy_data
__do_clear_bss
